; ModuleID = '35/2278.c'
source_filename = "35/2278.c"
target datalayout = "e-m:e-p270:32:32-p271:32:32-p272:64:64-i64:64-f80:128-n8:16:32:64-S128"
target triple = "x86_64-pc-linux-gnu"

@.str = private unnamed_addr constant [6 x i8] c"%d,%d\00", align 1
@.str.1 = private unnamed_addr constant [3 x i8] c"%d\00", align 1
@.str.2 = private unnamed_addr constant [6 x i8] c"%d+%d\00", align 1
@.str.3 = private unnamed_addr constant [4 x i8] c"No\0A\00", align 1

; Function Attrs: noinline nounwind uwtable
define dso_local void @main() #0 {
  %1 = alloca i32, align 4
  %2 = alloca i32, align 4
  %3 = alloca i32, align 4
  %4 = alloca i32, align 4
  %5 = alloca [5 x [5 x i32]], align 16
  %6 = alloca i32, align 4
  %7 = alloca i32, align 4
  %8 = alloca i32, align 4
  %9 = alloca i32, align 4
  %10 = alloca [5 x i32], align 16
  %11 = alloca [5 x i32], align 16
  %12 = alloca [5 x i32], align 16
  %13 = alloca [5 x i32], align 16
  %14 = call i32 (i8*, ...) @__isoc99_scanf(i8* getelementptr inbounds ([6 x i8], [6 x i8]* @.str, i64 0, i64 0), i32* %1, i32* %2)
  store i32 0, i32* %3, align 4
  br label %15

15:                                               ; preds = %38, %0
  %16 = load i32, i32* %3, align 4
  %17 = load i32, i32* %1, align 4
  %18 = sub nsw i32 %17, 1
  %19 = icmp sle i32 %16, %18
  br i1 %19, label %20, label %41

20:                                               ; preds = %15
  store i32 0, i32* %4, align 4
  br label %21

21:                                               ; preds = %34, %20
  %22 = load i32, i32* %4, align 4
  %23 = load i32, i32* %2, align 4
  %24 = sub nsw i32 %23, 1
  %25 = icmp sle i32 %22, %24
  br i1 %25, label %26, label %37

26:                                               ; preds = %21
  %27 = load i32, i32* %3, align 4
  %28 = sext i32 %27 to i64
  %29 = getelementptr inbounds [5 x [5 x i32]], [5 x [5 x i32]]* %5, i64 0, i64 %28
  %30 = load i32, i32* %4, align 4
  %31 = sext i32 %30 to i64
  %32 = getelementptr inbounds [5 x i32], [5 x i32]* %29, i64 0, i64 %31
  %33 = call i32 (i8*, ...) @__isoc99_scanf(i8* getelementptr inbounds ([3 x i8], [3 x i8]* @.str.1, i64 0, i64 0), i32* %32)
  br label %34

34:                                               ; preds = %26
  %35 = load i32, i32* %4, align 4
  %36 = add nsw i32 %35, 1
  store i32 %36, i32* %4, align 4
  br label %21

37:                                               ; preds = %21
  br label %38

38:                                               ; preds = %37
  %39 = load i32, i32* %3, align 4
  %40 = add nsw i32 %39, 1
  store i32 %40, i32* %3, align 4
  br label %15

41:                                               ; preds = %15
  store i32 0, i32* %3, align 4
  br label %42

42:                                               ; preds = %96, %41
  %43 = load i32, i32* %3, align 4
  %44 = load i32, i32* %1, align 4
  %45 = sub nsw i32 %44, 1
  %46 = icmp sle i32 %43, %45
  br i1 %46, label %47, label %99

47:                                               ; preds = %42
  store i32 0, i32* %4, align 4
  %48 = load i32, i32* %3, align 4
  %49 = sext i32 %48 to i64
  %50 = getelementptr inbounds [5 x [5 x i32]], [5 x [5 x i32]]* %5, i64 0, i64 %49
  %51 = load i32, i32* %4, align 4
  %52 = sext i32 %51 to i64
  %53 = getelementptr inbounds [5 x i32], [5 x i32]* %50, i64 0, i64 %52
  %54 = load i32, i32* %53, align 4
  store i32 %54, i32* %6, align 4
  %55 = load i32, i32* %4, align 4
  store i32 %55, i32* %7, align 4
  br label %56

56:                                               ; preds = %84, %47
  %57 = load i32, i32* %4, align 4
  %58 = load i32, i32* %2, align 4
  %59 = sub nsw i32 %58, 2
  %60 = icmp sle i32 %57, %59
  br i1 %60, label %61, label %87

61:                                               ; preds = %56
  %62 = load i32, i32* %6, align 4
  %63 = load i32, i32* %3, align 4
  %64 = sext i32 %63 to i64
  %65 = getelementptr inbounds [5 x [5 x i32]], [5 x [5 x i32]]* %5, i64 0, i64 %64
  %66 = load i32, i32* %4, align 4
  %67 = add nsw i32 %66, 1
  %68 = sext i32 %67 to i64
  %69 = getelementptr inbounds [5 x i32], [5 x i32]* %65, i64 0, i64 %68
  %70 = load i32, i32* %69, align 4
  %71 = icmp sle i32 %62, %70
  br i1 %71, label %72, label %83

72:                                               ; preds = %61
  %73 = load i32, i32* %3, align 4
  %74 = sext i32 %73 to i64
  %75 = getelementptr inbounds [5 x [5 x i32]], [5 x [5 x i32]]* %5, i64 0, i64 %74
  %76 = load i32, i32* %4, align 4
  %77 = add nsw i32 %76, 1
  %78 = sext i32 %77 to i64
  %79 = getelementptr inbounds [5 x i32], [5 x i32]* %75, i64 0, i64 %78
  %80 = load i32, i32* %79, align 4
  store i32 %80, i32* %6, align 4
  %81 = load i32, i32* %4, align 4
  %82 = add nsw i32 %81, 1
  store i32 %82, i32* %7, align 4
  br label %83

83:                                               ; preds = %72, %61
  br label %84

84:                                               ; preds = %83
  %85 = load i32, i32* %4, align 4
  %86 = add nsw i32 %85, 1
  store i32 %86, i32* %4, align 4
  br label %56

87:                                               ; preds = %56
  %88 = load i32, i32* %6, align 4
  %89 = load i32, i32* %3, align 4
  %90 = sext i32 %89 to i64
  %91 = getelementptr inbounds [5 x i32], [5 x i32]* %10, i64 0, i64 %90
  store i32 %88, i32* %91, align 4
  %92 = load i32, i32* %7, align 4
  %93 = load i32, i32* %3, align 4
  %94 = sext i32 %93 to i64
  %95 = getelementptr inbounds [5 x i32], [5 x i32]* %12, i64 0, i64 %94
  store i32 %92, i32* %95, align 4
  br label %96

96:                                               ; preds = %87
  %97 = load i32, i32* %3, align 4
  %98 = add nsw i32 %97, 1
  store i32 %98, i32* %3, align 4
  br label %42

99:                                               ; preds = %42
  store i32 0, i32* %4, align 4
  store i32 0, i32* %3, align 4
  br label %100

100:                                              ; preds = %154, %99
  %101 = load i32, i32* %4, align 4
  %102 = load i32, i32* %2, align 4
  %103 = sub nsw i32 %102, 1
  %104 = icmp sle i32 %101, %103
  br i1 %104, label %105, label %157

105:                                              ; preds = %100
  store i32 0, i32* %3, align 4
  %106 = load i32, i32* %3, align 4
  %107 = sext i32 %106 to i64
  %108 = getelementptr inbounds [5 x [5 x i32]], [5 x [5 x i32]]* %5, i64 0, i64 %107
  %109 = load i32, i32* %4, align 4
  %110 = sext i32 %109 to i64
  %111 = getelementptr inbounds [5 x i32], [5 x i32]* %108, i64 0, i64 %110
  %112 = load i32, i32* %111, align 4
  store i32 %112, i32* %8, align 4
  %113 = load i32, i32* %3, align 4
  store i32 %113, i32* %9, align 4
  br label %114

114:                                              ; preds = %142, %105
  %115 = load i32, i32* %3, align 4
  %116 = load i32, i32* %1, align 4
  %117 = sub nsw i32 %116, 2
  %118 = icmp sle i32 %115, %117
  br i1 %118, label %119, label %145

119:                                              ; preds = %114
  %120 = load i32, i32* %8, align 4
  %121 = load i32, i32* %3, align 4
  %122 = add nsw i32 %121, 1
  %123 = sext i32 %122 to i64
  %124 = getelementptr inbounds [5 x [5 x i32]], [5 x [5 x i32]]* %5, i64 0, i64 %123
  %125 = load i32, i32* %4, align 4
  %126 = sext i32 %125 to i64
  %127 = getelementptr inbounds [5 x i32], [5 x i32]* %124, i64 0, i64 %126
  %128 = load i32, i32* %127, align 4
  %129 = icmp sge i32 %120, %128
  br i1 %129, label %130, label %141

130:                                              ; preds = %119
  %131 = load i32, i32* %3, align 4
  %132 = add nsw i32 %131, 1
  %133 = sext i32 %132 to i64
  %134 = getelementptr inbounds [5 x [5 x i32]], [5 x [5 x i32]]* %5, i64 0, i64 %133
  %135 = load i32, i32* %4, align 4
  %136 = sext i32 %135 to i64
  %137 = getelementptr inbounds [5 x i32], [5 x i32]* %134, i64 0, i64 %136
  %138 = load i32, i32* %137, align 4
  store i32 %138, i32* %8, align 4
  %139 = load i32, i32* %3, align 4
  %140 = add nsw i32 %139, 1
  store i32 %140, i32* %9, align 4
  br label %141

141:                                              ; preds = %130, %119
  br label %142

142:                                              ; preds = %141
  %143 = load i32, i32* %3, align 4
  %144 = add nsw i32 %143, 1
  store i32 %144, i32* %3, align 4
  br label %114

145:                                              ; preds = %114
  %146 = load i32, i32* %8, align 4
  %147 = load i32, i32* %4, align 4
  %148 = sext i32 %147 to i64
  %149 = getelementptr inbounds [5 x i32], [5 x i32]* %11, i64 0, i64 %148
  store i32 %146, i32* %149, align 4
  %150 = load i32, i32* %9, align 4
  %151 = load i32, i32* %4, align 4
  %152 = sext i32 %151 to i64
  %153 = getelementptr inbounds [5 x i32], [5 x i32]* %13, i64 0, i64 %152
  store i32 %150, i32* %153, align 4
  br label %154

154:                                              ; preds = %145
  %155 = load i32, i32* %4, align 4
  %156 = add nsw i32 %155, 1
  store i32 %156, i32* %4, align 4
  br label %100

157:                                              ; preds = %100
  store i32 0, i32* %3, align 4
  store i32 0, i32* %4, align 4
  br label %158

158:                                              ; preds = %183, %157
  %159 = load i32, i32* %3, align 4
  %160 = load i32, i32* %1, align 4
  %161 = sub nsw i32 %160, 1
  %162 = icmp sle i32 %159, %161
  br i1 %162, label %163, label %186

163:                                              ; preds = %158
  %164 = load i32, i32* %3, align 4
  %165 = sext i32 %164 to i64
  %166 = getelementptr inbounds [5 x i32], [5 x i32]* %12, i64 0, i64 %165
  %167 = load i32, i32* %166, align 4
  %168 = sext i32 %167 to i64
  %169 = getelementptr inbounds [5 x i32], [5 x i32]* %13, i64 0, i64 %168
  %170 = load i32, i32* %169, align 4
  %171 = load i32, i32* %3, align 4
  %172 = icmp eq i32 %170, %171
  br i1 %172, label %173, label %182

173:                                              ; preds = %163
  %174 = load i32, i32* %3, align 4
  %175 = load i32, i32* %3, align 4
  %176 = sext i32 %175 to i64
  %177 = getelementptr inbounds [5 x i32], [5 x i32]* %12, i64 0, i64 %176
  %178 = load i32, i32* %177, align 4
  %179 = call i32 (i8*, ...) @printf(i8* getelementptr inbounds ([6 x i8], [6 x i8]* @.str.2, i64 0, i64 0), i32 %174, i32 %178)
  %180 = load i32, i32* %4, align 4
  %181 = add nsw i32 %180, 1
  store i32 %181, i32* %4, align 4
  br label %182

182:                                              ; preds = %173, %163
  br label %183

183:                                              ; preds = %182
  %184 = load i32, i32* %3, align 4
  %185 = add nsw i32 %184, 1
  store i32 %185, i32* %3, align 4
  br label %158

186:                                              ; preds = %158
  %187 = load i32, i32* %4, align 4
  %188 = icmp eq i32 %187, 0
  br i1 %188, label %189, label %191

189:                                              ; preds = %186
  %190 = call i32 (i8*, ...) @printf(i8* getelementptr inbounds ([4 x i8], [4 x i8]* @.str.3, i64 0, i64 0))
  br label %191

191:                                              ; preds = %189, %186
  ret void
}

declare dso_local i32 @__isoc99_scanf(i8*, ...) #1

declare dso_local i32 @printf(i8*, ...) #1


!llvm.module.flags = !{!0}
!llvm.ident = !{!1}

!0 = !{i32 1, !"wchar_size", i32 4}
!1 = !{!"clang version 10.0.0-4ubuntu1 "}
